; Function Attrs: nounwind uwtable
define internal void @show_cruft_object(ptr noundef %0, ptr noundef %1, ptr readnone captures(none) %2) #0 {
  %4 = getelementptr inbounds nuw i8, ptr %0, i64 4
  %5 = load i32, ptr %0, align 4
  %6 = lshr i32 %5, 1
  %7 = and i32 %6, 7
  %8 = load i64, ptr @cruft_expiration, align 8, !tbaa !28
  %9 = trunc i64 %8 to i32
  tail call fastcc void @add_cruft_object_entry(ptr noundef nonnull %4, i32 noundef %7, ptr noundef null, i64 noundef 0, ptr noundef %1, i32 noundef %9)
  ret void
}